Certificate:
    Data:
        Version: 3 (0x2)
        Serial Number: 18088816494082216503 (0xfb0862c340ff5237)
    Signature Algorithm: sha1WithRSAEncryption
        Issuer: CN=QUIC Server Root CA
        Validity
            Not Before: Jun  3 14:53:10 2020 GMT
            Not After : Jun  3 14:53:10 2021 GMT
        Subject: CN=QUIC Server Root CA
        Subject Public Key Info:
            Public Key Algorithm: rsaEncryption
                Public-Key: (2048 bit)
                Modulus:
                    00:bf:b4:53:7b:3c:a8:5b:e3:61:75:8d:ac:92:a6:
                    92:e8:c9:e7:df:4a:e4:e0:d9:d5:6a:36:eb:6d:41:
                    65:0f:9c:a8:7c:c4:71:33:51:bf:70:2e:44:cb:ee:
                    d4:8a:c4:7f:9a:ad:e5:79:50:fb:76:97:7e:c3:9b:
                    b9:8d:40:e3:60:53:12:d1:36:e1:13:15:aa:5c:18:
                    89:fb:dd:e6:8a:0c:2e:42:33:eb:03:7b:01:65:2d:
                    5f:45:8d:97:06:d5:55:5a:3c:fb:50:8b:4e:32:2b:
                    96:e7:54:22:61:ea:2f:55:80:71:a7:18:3f:59:f4:
                    75:43:db:ac:84:61:43:2d:0c:e5:e4:be:44:fa:02:
                    0a:62:87:af:18:7a:05:bc:13:e3:22:f8:7b:79:88:
                    78:5e:48:f9:90:71:de:ac:20:a7:77:fe:42:4b:ec:
                    49:2f:d4:09:f0:8b:4a:4b:57:5d:06:61:e2:19:51:
                    5a:2f:82:3e:cf:d6:32:54:36:a4:45:09:bf:c5:d7:
                    01:7a:ba:ef:2f:b3:63:f2:be:c0:27:c8:ab:6d:b1:
                    58:4a:64:1c:aa:86:68:f6:c3:08:ae:ae:43:1d:0e:
                    f5:c3:d2:dc:c8:f5:df:11:1f:66:59:09:12:7e:8f:
                    48:20:4f:1c:a6:cb:ee:4e:51:30:a1:c9:d9:ce:a3:
                    7e:a3
                Exponent: 65537 (0x10001)
        X509v3 extensions:
            X509v3 Basic Constraints: critical
                CA:TRUE
            X509v3 Subject Key Identifier: 
                DD:5D:E5:49:C3:6B:3C:0B:A6:EC:A4:F0:75:D7:FD:62:6A:29:D6:D4
            X509v3 Key Usage: critical
                Certificate Sign, CRL Sign
    Signature Algorithm: sha1WithRSAEncryption
         29:9c:89:55:1f:05:63:44:87:fa:67:22:ef:e0:e3:4c:c1:7f:
         ed:68:1a:37:50:9c:13:3d:a4:3a:22:30:13:a9:df:7e:af:02:
         d5:b2:46:c0:0c:9d:e2:2c:22:d1:de:e2:cc:d1:f9:df:e4:db:
         fd:18:9b:80:62:5a:5e:11:7d:e6:1f:0f:34:1a:9b:6d:87:c3:
         ee:1c:8b:f9:0f:b1:6f:73:1d:f8:cc:bd:52:62:db:a4:ae:cc:
         d4:44:a6:17:7f:90:44:ab:6b:39:73:f7:7d:7d:5a:49:c1:94:
         4c:a7:68:88:3c:3d:d3:1d:4e:7d:bb:33:e8:9e:a6:dd:5d:b4:
         ef:c5:1f:79:d2:2c:16:47:66:54:24:a4:50:b9:fa:d7:45:57:
         58:74:46:c3:f8:26:44:46:42:c4:5b:74:33:79:41:a1:d9:59:
         18:31:65:e4:0e:8a:ea:b5:90:19:bc:fc:49:5b:d4:6e:1e:3c:
         89:36:0a:6e:8e:91:ae:e9:1b:80:30:63:72:0e:f1:5d:0e:f2:
         69:ae:39:9b:b1:7b:e8:3f:61:77:1b:86:ce:dc:95:0c:59:1f:
         69:53:45:b3:8f:27:a5:9d:2a:93:c1:77:62:cf:02:9b:bd:8a:
         dd:74:e4:23:0c:98:1f:90:7e:c9:06:90:65:b7:95:74:19:b9:
         61:a6:96:46
-----BEGIN CERTIFICATE-----
MIIDATCCAemgAwIBAgIJAPsIYsNA/1I3MA0GCSqGSIb3DQEBBQUAMB4xHDAaBgNV
BAMME1FVSUMgU2VydmVyIFJvb3QgQ0EwHhcNMjAwNjAzMTQ1MzEwWhcNMjEwNjAz
MTQ1MzEwWjAeMRwwGgYDVQQDDBNRVUlDIFNlcnZlciBSb290IENBMIIBIjANBgkq
hkiG9w0BAQEFAAOCAQ8AMIIBCgKCAQEAv7RTezyoW+NhdY2skqaS6Mnn30rk4NnV
ajbrbUFlD5yofMRxM1G/cC5Ey+7UisR/mq3leVD7dpd+w5u5jUDjYFMS0TbhExWq
XBiJ+93migwuQjPrA3sBZS1fRY2XBtVVWjz7UItOMiuW51QiYeovVYBxpxg/WfR1
Q9ushGFDLQzl5L5E+gIKYoevGHoFvBPjIvh7eYh4Xkj5kHHerCCnd/5CS+xJL9QJ
8ItKS1ddBmHiGVFaL4I+z9YyVDakRQm/xdcBerrvL7Nj8r7AJ8irbbFYSmQcqoZo
9sMIrq5DHQ71w9LcyPXfER9mWQkSfo9IIE8cpsvuTlEwocnZzqN+owIDAQABo0Iw
QDAPBgNVHRMBAf8EBTADAQH/MB0GA1UdDgQWBBTdXeVJw2s8C6bspPB11/1iainW
1DAOBgNVHQ8BAf8EBAMCAQYwDQYJKoZIhvcNAQEFBQADggEBACmciVUfBWNEh/pn
Iu/g40zBf+1oGjdQnBM9pDoiMBOp336vAtWyRsAMneIsItHe4szR+d/k2/0Ym4Bi
Wl4RfeYfDzQam22Hw+4ci/kPsW9zHfjMvVJi26SuzNREphd/kESrazlz9319WknB
lEynaIg8PdMdTn27M+iept1dtO/FH3nSLBZHZlQkpFC5+tdFV1h0RsP4JkRGQsRb
dDN5QaHZWRgxZeQOiuq1kBm8/Elb1G4ePIk2Cm6Oka7pG4AwY3IO8V0O8mmuOZux
e+g/YXcbhs7clQxZH2lTRbOPJ6WdKpPBd2LPApu9it105CMMmB+QfskGkGW3lXQZ
uWGmlkY=
-----END CERTIFICATE-----
