Certificate:
    Data:
        Version: 3 (0x2)
        Serial Number: 1 (0x1)
    Signature Algorithm: sha256WithRSAEncryption
        Issuer: CN=QUIC Server Root CA
        Validity
            Not Before: Jun  3 14:53:12 2020 GMT
            Not After : Jun  3 14:53:12 2021 GMT
        Subject: C=US, ST=California, L=Mountain View, O=QUIC Server, CN=127.0.0.1
        Subject Public Key Info:
            Public Key Algorithm: rsaEncryption
                Public-Key: (2048 bit)
                Modulus:
                    00:b7:22:e4:38:42:8b:a6:cd:e8:c9:ef:2b:57:13:
                    ee:b9:86:04:f9:39:23:29:88:ed:6c:cf:94:e5:27:
                    9c:3d:33:77:90:47:a0:2d:78:64:63:ab:c8:d8:e6:
                    af:ef:ea:cc:31:90:d7:90:bc:34:b6:db:1e:9e:fd:
                    c4:05:45:b6:5e:d1:f7:94:a7:0c:ee:8f:69:08:c1:
                    9a:f7:8e:f6:b9:18:b7:0f:3d:32:7d:1e:65:b5:8a:
                    37:97:1e:c1:01:65:d7:0a:a1:0b:6f:85:c4:98:5e:
                    2e:04:18:13:2b:c7:ae:ce:1e:20:fc:84:c9:79:da:
                    57:ec:ea:13:7e:0d:57:e9:60:e5:01:4d:64:7e:bd:
                    77:56:27:a6:bf:7d:e5:6e:f6:54:c5:7f:7e:8c:96:
                    8c:af:eb:0f:54:ba:17:46:7e:b1:79:0f:8b:b5:b3:
                    f0:d7:7a:33:d6:b0:bf:e6:20:c5:04:cb:dd:22:fa:
                    cd:81:f4:41:bc:17:52:00:68:0b:2e:d3:3b:94:c6:
                    87:29:57:60:79:53:43:4d:b9:c6:68:73:8d:0f:71:
                    7b:02:bd:e4:b8:d9:fc:b1:ae:9b:72:6b:d7:82:25:
                    62:56:f5:a2:99:de:c9:a3:fe:05:1e:42:93:e1:7a:
                    99:74:2f:6e:81:19:83:0b:89:da:86:ad:63:ce:d9:
                    04:c9
                Exponent: 65537 (0x10001)
        X509v3 extensions:
            X509v3 Basic Constraints: critical
                CA:FALSE
            X509v3 Subject Key Identifier: 
                A9:EC:DE:C6:76:01:E1:4C:94:8A:9B:2A:FD:2B:4B:A8:37:BC:D0:83
            X509v3 Authority Key Identifier: 
                keyid:DD:5D:E5:49:C3:6B:3C:0B:A6:EC:A4:F0:75:D7:FD:62:6A:29:D6:D4

            X509v3 Extended Key Usage: 
                TLS Web Server Authentication, TLS Web Client Authentication
            X509v3 Subject Alternative Name: 
                DNS:www.example.org, DNS:mail.example.org, DNS:mail.example.com, IP Address:127.0.0.1
    Signature Algorithm: sha256WithRSAEncryption
         ab:21:c1:6e:6e:3f:f4:e1:c8:a1:ce:aa:9a:8a:42:d5:c6:0b:
         c0:74:be:7f:9f:9a:9d:c7:9f:73:8f:cd:e2:07:84:06:78:dc:
         e4:59:1d:9c:c3:eb:fd:3e:57:cb:1b:f2:b2:4a:e6:e2:ae:df:
         5b:53:dc:28:69:89:b6:73:8d:50:f6:07:80:63:6e:0e:92:fd:
         f5:ac:fb:43:73:52:1f:c7:56:0f:fb:3f:fb:1c:dd:17:00:c6:
         f5:db:3b:67:50:25:0b:56:3f:6b:06:0e:38:73:f9:e5:23:a5:
         66:09:e3:9b:17:cd:b9:86:c5:81:1a:74:4c:6a:23:f4:7c:8f:
         12:b0:15:6b:76:9a:0a:7e:b9:ee:73:0b:8e:81:2a:60:dd:b3:
         ad:ff:ce:af:c4:41:64:3c:d5:92:d0:41:fc:22:48:35:f3:4f:
         82:69:6c:0f:9f:09:87:2f:55:c5:af:70:12:f6:04:d5:cc:d5:
         3c:d1:e1:da:e1:b3:5d:9b:44:a9:e0:7a:61:c9:43:91:cf:ec:
         a6:49:10:16:24:bf:e7:1d:a9:74:e9:f3:da:5c:43:1e:c5:59:
         25:b2:00:32:06:30:a9:0e:4e:a2:c5:20:f4:1f:9c:bf:52:f7:
         c0:90:49:e3:fc:73:ac:df:62:ba:bd:2e:d1:c9:95:4b:b3:b7:
         71:3a:1f:6a
-----BEGIN CERTIFICATE-----
MIIDtDCCApygAwIBAgIBATANBgkqhkiG9w0BAQsFADAeMRwwGgYDVQQDDBNRVUlD
IFNlcnZlciBSb290IENBMB4XDTIwMDYwMzE0NTMxMloXDTIxMDYwMzE0NTMxMlow
ZDELMAkGA1UEBhMCVVMxEzARBgNVBAgMCkNhbGlmb3JuaWExFjAUBgNVBAcMDU1v
dW50YWluIFZpZXcxFDASBgNVBAoMC1FVSUMgU2VydmVyMRIwEAYDVQQDDAkxMjcu
MC4wLjEwggEiMA0GCSqGSIb3DQEBAQUAA4IBDwAwggEKAoIBAQC3IuQ4QoumzejJ
7ytXE+65hgT5OSMpiO1sz5TlJ5w9M3eQR6AteGRjq8jY5q/v6swxkNeQvDS22x6e
/cQFRbZe0feUpwzuj2kIwZr3jva5GLcPPTJ9HmW1ijeXHsEBZdcKoQtvhcSYXi4E
GBMrx67OHiD8hMl52lfs6hN+DVfpYOUBTWR+vXdWJ6a/feVu9lTFf36Mloyv6w9U
uhdGfrF5D4u1s/DXejPWsL/mIMUEy90i+s2B9EG8F1IAaAsu0zuUxocpV2B5U0NN
ucZoc40PcXsCveS42fyxrptya9eCJWJW9aKZ3smj/gUeQpPhepl0L26BGYMLidqG
rWPO2QTJAgMBAAGjgbYwgbMwDAYDVR0TAQH/BAIwADAdBgNVHQ4EFgQUqezexnYB
4UyUipsq/StLqDe80IMwHwYDVR0jBBgwFoAU3V3lScNrPAum7KTwddf9Ymop1tQw
HQYDVR0lBBYwFAYIKwYBBQUHAwEGCCsGAQUFBwMCMEQGA1UdEQQ9MDuCD3d3dy5l
eGFtcGxlLm9yZ4IQbWFpbC5leGFtcGxlLm9yZ4IQbWFpbC5leGFtcGxlLmNvbYcE
fwAAATANBgkqhkiG9w0BAQsFAAOCAQEAqyHBbm4/9OHIoc6qmopC1cYLwHS+f5+a
ncefc4/N4geEBnjc5FkdnMPr/T5Xyxvyskrm4q7fW1PcKGmJtnONUPYHgGNuDpL9
9az7Q3NSH8dWD/s/+xzdFwDG9ds7Z1AlC1Y/awYOOHP55SOlZgnjmxfNuYbFgRp0
TGoj9HyPErAVa3aaCn657nMLjoEqYN2zrf/Or8RBZDzVktBB/CJINfNPgmlsD58J
hy9Vxa9wEvYE1czVPNHh2uGzXZtEqeB6YclDkc/spkkQFiS/5x2pdOnz2lxDHsVZ
JbIAMgYwqQ5OosUg9B+cv1L3wJBJ4/xzrN9iur0u0cmVS7O3cTofag==
-----END CERTIFICATE-----
